; Function Attrs: inlinehint nounwind sspstrong uwtable
define internal void @gen_helper_gvec_andcs(ptr noundef %0, ptr noundef %1, ptr noundef %2, ptr noundef %3) #6 {
  %5 = load ptr, ptr @helper_info_gvec_andcs, align 8
  %6 = tail call align 8 ptr @llvm.threadlocal.address.p0(ptr align 8 @tcg_ctx)
  %7 = load ptr, ptr %6, align 8
  %8 = ptrtoint ptr %0 to i64
  %9 = getelementptr inbounds nuw i8, ptr %7, i64 %8
  %10 = ptrtoint ptr %1 to i64
  %11 = getelementptr inbounds nuw i8, ptr %7, i64 %10
  %12 = ptrtoint ptr %2 to i64
  %13 = getelementptr inbounds nuw i8, ptr %7, i64 %12
  %14 = ptrtoint ptr %3 to i64
  %15 = getelementptr inbounds nuw i8, ptr %7, i64 %14
  tail call void @tcg_gen_call4(ptr noundef %5, ptr noundef nonnull @helper_info_gvec_andcs, ptr noundef null, ptr noundef %9, ptr noundef %11, ptr noundef %13, ptr noundef %15) #10
  ret void
}